target datalayout = "e-m:e-p270:32:32-p271:32:32-p272:64:64-i64:64-i128:128-f80:128-n8:16:32:64-S128"
target triple = "x86_64-pc-linux-gnu"

%struct.packet_provider_funcs = type { ptr, ptr, ptr, ptr }
%struct.cf_callback_data_t = type { ptr, ptr }
%struct._GList = type { ptr, ptr, ptr }
%struct._capture_file = type { ptr, i32, ptr, ptr, i8, i8, i8, i64, i16, i32, i32, i32, ptr, i32, i64, i32, i32, i32, i32, i8, i32, %struct.nstime_t, i32, ptr, ptr, ptr, i8, i8, i32, ptr, i8, i8, i8, i8, i8, i32, i32, i8, ptr, i32, i32, i8, %struct.packet_provider_data, i32, i32, %struct.epan_column_info, ptr, ptr, ptr, %struct.wtap_rec, %struct.Buffer, ptr, i64, i32 }
%struct.nstime_t = type { i64, i32 }
%struct.packet_provider_data = type { ptr, ptr, ptr, ptr, ptr, ptr }
%struct.epan_column_info = type { ptr, i32, ptr, ptr, ptr, %struct.col_expr_t, i8, ptr }
%struct.col_expr_t = type { ptr, ptr }
%struct.wtap_rec = type { i32, i32, i32, %struct.nstime_t, i32, %struct.nstime_t, i8, %union.anon, ptr, i8, %struct.Buffer, %struct.Buffer }
%union.anon = type { %struct.wtap_packet_header }
%struct.wtap_packet_header = type { i32, i32, i32, i32, %union.wtap_pseudo_header }
%union.wtap_pseudo_header = type { %struct.erf_mc_phdr }
%struct.erf_mc_phdr = type { %struct.erf_phdr, [16 x %struct.erf_ehdr], %union.anon.1 }
%struct.erf_phdr = type { i64, i8, i8, i16, i16, i16 }
%struct.erf_ehdr = type { i64 }
%union.anon.1 = type { i32 }
%struct.Buffer = type { ptr, i64, i64, i64 }

@cf_callbacks = internal global ptr null, align 8
@ws_epan_new.funcs = internal constant %struct.packet_provider_funcs { ptr @cap_file_provider_get_frame_ts, ptr @cap_file_provider_get_interface_name, ptr @cap_file_provider_get_interface_description, ptr @cap_file_provider_get_modified_block }, align 8

; Function Attrs: null_pointer_is_valid sspstrong uwtable
define internal void @cf_callback_invoke(i32 noundef %0, ptr noundef %1) #1 {
  %3 = alloca i32, align 4
  %4 = alloca ptr, align 8
  %5 = alloca ptr, align 8
  %6 = alloca ptr, align 8
  store i32 %0, ptr %3, align 4
  store ptr %1, ptr %4, align 8
  call void @llvm.lifetime.start.p0(i64 8, ptr %5) #19
  call void @llvm.lifetime.start.p0(i64 8, ptr %6) #19
  %7 = load ptr, ptr @cf_callbacks, align 8
  store ptr %7, ptr %6, align 8
  br label %8

8:                                                ; preds = %2
  br label %9

9:                                                ; preds = %8
  br label %10

10:                                               ; preds = %9
  br label %11

11:                                               ; preds = %33, %10
  %12 = load ptr, ptr %6, align 8
  %13 = icmp ne ptr %12, null
  br i1 %13, label %14, label %35

14:                                               ; preds = %11
  %15 = load ptr, ptr %6, align 8
  %16 = getelementptr inbounds nuw %struct._GList, ptr %15, i32 0, i32 0
  %17 = load ptr, ptr %16, align 8
  store ptr %17, ptr %5, align 8
  %18 = load ptr, ptr %5, align 8
  %19 = getelementptr inbounds nuw %struct.cf_callback_data_t, ptr %18, i32 0, i32 0
  %20 = load ptr, ptr %19, align 8
  %21 = load i32, ptr %3, align 4
  %22 = load ptr, ptr %4, align 8
  %23 = load ptr, ptr %5, align 8
  %24 = getelementptr inbounds nuw %struct.cf_callback_data_t, ptr %23, i32 0, i32 1
  %25 = load ptr, ptr %24, align 8
  call void %20(i32 noundef %21, ptr noundef %22, ptr noundef %25)
  %26 = load ptr, ptr %6, align 8
  %27 = icmp ne ptr %26, null
  br i1 %27, label %28, label %32

28:                                               ; preds = %14
  %29 = load ptr, ptr %6, align 8
  %30 = getelementptr inbounds nuw %struct._GList, ptr %29, i32 0, i32 1
  %31 = load ptr, ptr %30, align 8
  br label %33

32:                                               ; preds = %14
  br label %33

33:                                               ; preds = %32, %28
  %34 = phi ptr [ %31, %28 ], [ null, %32 ]
  store ptr %34, ptr %6, align 8
  br label %11, !llvm.loop !10

35:                                               ; preds = %11
  call void @llvm.lifetime.end.p0(i64 8, ptr %6) #19
  call void @llvm.lifetime.end.p0(i64 8, ptr %5) #19
  ret void
}

; Function Attrs: null_pointer_is_valid sspstrong uwtable
define internal ptr @ws_epan_new(ptr noundef %0) #1 {
  %2 = alloca ptr, align 8
  store ptr %0, ptr %2, align 8
  %3 = load ptr, ptr %2, align 8
  %4 = getelementptr inbounds nuw %struct._capture_file, ptr %3, i32 0, i32 42
  %5 = call ptr @epan_new(ptr noundef %4, ptr noundef @ws_epan_new.funcs)
  ret ptr %5
}

; Function Attrs: null_pointer_is_valid sspstrong uwtable
define hidden i32 @cf_open(ptr noundef %0, ptr noundef %1, i32 noundef %2, i1 noundef zeroext %3, ptr noundef %4) #1 {
  %6 = alloca i32, align 4
  %7 = alloca ptr, align 8
  %8 = alloca ptr, align 8
  %9 = alloca i32, align 4
  %10 = alloca i8, align 1
  %11 = alloca ptr, align 8
  %12 = alloca ptr, align 8
  %13 = alloca ptr, align 8
  %14 = alloca i32, align 4
  store ptr %0, ptr %7, align 8
  store ptr %1, ptr %8, align 8
  store i32 %2, ptr %9, align 4
  %15 = zext i1 %3 to i8
  store i8 %15, ptr %10, align 1
  store ptr %4, ptr %11, align 8
  call void @llvm.lifetime.start.p0(i64 8, ptr %12) #19
  call void @llvm.lifetime.start.p0(i64 8, ptr %13) #19
  %16 = load ptr, ptr %8, align 8
  %17 = load i32, ptr %9, align 4
  %18 = load ptr, ptr %11, align 8
  %19 = call ptr @wtap_open_offline(ptr noundef %16, i32 noundef %17, ptr noundef %18, ptr noundef %13, i1 noundef zeroext true)
  store ptr %19, ptr %12, align 8
  %20 = load ptr, ptr %12, align 8
  %21 = icmp eq ptr %20, null
  br i1 %21, label %22, label %23

22:                                               ; preds = %5
  br label %130

23:                                               ; preds = %5
  %24 = load ptr, ptr %7, align 8
  call void @cf_close(ptr noundef %24)
  %25 = load ptr, ptr %7, align 8
  %26 = getelementptr inbounds nuw %struct._capture_file, ptr %25, i32 0, i32 49
  call void @wtap_rec_init(ptr noundef %26, i64 noundef 1514)
  %27 = load ptr, ptr %7, align 8
  %28 = getelementptr inbounds nuw %struct._capture_file, ptr %27, i32 0, i32 1
  store i32 2, ptr %28, align 8
  %29 = load ptr, ptr %7, align 8
  %30 = getelementptr inbounds nuw %struct._capture_file, ptr %29, i32 0, i32 27
  store i8 0, ptr %30, align 1
  %31 = load ptr, ptr %7, align 8
  %32 = getelementptr inbounds nuw %struct._capture_file, ptr %31, i32 0, i32 28
  store i32 0, ptr %32, align 4
  %33 = load ptr, ptr %12, align 8
  %34 = load ptr, ptr %7, align 8
  %35 = getelementptr inbounds nuw %struct._capture_file, ptr %34, i32 0, i32 42
  %36 = getelementptr inbounds nuw %struct.packet_provider_data, ptr %35, i32 0, i32 0
  store ptr %33, ptr %36, align 8
  %37 = load ptr, ptr %7, align 8
  %38 = getelementptr inbounds nuw %struct._capture_file, ptr %37, i32 0, i32 7
  store i64 0, ptr %38, align 8
  %39 = load ptr, ptr %8, align 8
  %40 = call noalias ptr @g_strdup(ptr noundef %39)
  %41 = load ptr, ptr %7, align 8
  %42 = getelementptr inbounds nuw %struct._capture_file, ptr %41, i32 0, i32 2
  store ptr %40, ptr %42, align 8
  %43 = load i8, ptr %10, align 1, !range !8, !noundef !9
  %44 = trunc i8 %43 to i1
  %45 = load ptr, ptr %7, align 8
  %46 = getelementptr inbounds nuw %struct._capture_file, ptr %45, i32 0, i32 4
  %47 = zext i1 %44 to i8
  store i8 %47, ptr %46, align 8
  %48 = load ptr, ptr %7, align 8
  %49 = getelementptr inbounds nuw %struct._capture_file, ptr %48, i32 0, i32 5
  store i8 0, ptr %49, align 1
  %50 = load ptr, ptr %7, align 8
  %51 = getelementptr inbounds nuw %struct._capture_file, ptr %50, i32 0, i32 52
  store i64 0, ptr %51, align 8
  %52 = load ptr, ptr %7, align 8
  %53 = getelementptr inbounds nuw %struct._capture_file, ptr %52, i32 0, i32 42
  %54 = getelementptr inbounds nuw %struct.packet_provider_data, ptr %53, i32 0, i32 0
  %55 = load ptr, ptr %54, align 8
  %56 = call i32 @wtap_file_type_subtype(ptr noundef %55)
  %57 = trunc i32 %56 to i16
  %58 = load ptr, ptr %7, align 8
  %59 = getelementptr inbounds nuw %struct._capture_file, ptr %58, i32 0, i32 8
  store i16 %57, ptr %59, align 8
  %60 = load ptr, ptr %7, align 8
  %61 = getelementptr inbounds nuw %struct._capture_file, ptr %60, i32 0, i32 42
  %62 = getelementptr inbounds nuw %struct.packet_provider_data, ptr %61, i32 0, i32 0
  %63 = load ptr, ptr %62, align 8
  %64 = call i32 @wtap_get_compression_type(ptr noundef %63)
  %65 = load ptr, ptr %7, align 8
  %66 = getelementptr inbounds nuw %struct._capture_file, ptr %65, i32 0, i32 10
  store i32 %64, ptr %66, align 8
  %67 = load i32, ptr %9, align 4
  %68 = load ptr, ptr %7, align 8
  %69 = getelementptr inbounds nuw %struct._capture_file, ptr %68, i32 0, i32 9
  store i32 %67, ptr %69, align 4
  %70 = call ptr @g_array_sized_new(i32 noundef 0, i32 noundef 0, i32 noundef 4, i32 noundef 1)
  %71 = load ptr, ptr %7, align 8
  %72 = getelementptr inbounds nuw %struct._capture_file, ptr %71, i32 0, i32 12
  store ptr %70, ptr %72, align 8
  %73 = load ptr, ptr %7, align 8
  %74 = getelementptr inbounds nuw %struct._capture_file, ptr %73, i32 0, i32 13
  store i32 0, ptr %74, align 8
  %75 = load ptr, ptr %7, align 8
  %76 = getelementptr inbounds nuw %struct._capture_file, ptr %75, i32 0, i32 14
  store i64 0, ptr %76, align 8
  %77 = load ptr, ptr %7, align 8
  %78 = getelementptr inbounds nuw %struct._capture_file, ptr %77, i32 0, i32 15
  store i32 0, ptr %78, align 8
  %79 = load ptr, ptr %7, align 8
  %80 = getelementptr inbounds nuw %struct._capture_file, ptr %79, i32 0, i32 16
  store i32 0, ptr %80, align 4
  %81 = load ptr, ptr %7, align 8
  %82 = getelementptr inbounds nuw %struct._capture_file, ptr %81, i32 0, i32 17
  store i32 0, ptr %82, align 8
  %83 = load ptr, ptr %7, align 8
  %84 = getelementptr inbounds nuw %struct._capture_file, ptr %83, i32 0, i32 18
  store i32 0, ptr %84, align 4
  %85 = load ptr, ptr %7, align 8
  %86 = getelementptr inbounds nuw %struct._capture_file, ptr %85, i32 0, i32 19
  store i8 0, ptr %86, align 8
  %87 = load ptr, ptr %7, align 8
  %88 = getelementptr inbounds nuw %struct._capture_file, ptr %87, i32 0, i32 20
  store i32 0, ptr %88, align 4
  %89 = load ptr, ptr %7, align 8
  %90 = getelementptr inbounds nuw %struct._capture_file, ptr %89, i32 0, i32 42
  %91 = getelementptr inbounds nuw %struct.packet_provider_data, ptr %90, i32 0, i32 0
  %92 = load ptr, ptr %91, align 8
  %93 = call i32 @wtap_snapshot_length(ptr noundef %92)
  %94 = load ptr, ptr %7, align 8
  %95 = getelementptr inbounds nuw %struct._capture_file, ptr %94, i32 0, i32 22
  store i32 %93, ptr %95, align 8
  %96 = call ptr @new_frame_data_sequence()
  %97 = load ptr, ptr %7, align 8
  %98 = getelementptr inbounds nuw %struct._capture_file, ptr %97, i32 0, i32 42
  %99 = getelementptr inbounds nuw %struct.packet_provider_data, ptr %98, i32 0, i32 4
  store ptr %96, ptr %99, align 8
  %100 = load ptr, ptr %7, align 8
  %101 = getelementptr inbounds nuw %struct._capture_file, ptr %100, i32 0, i32 21
  call void @nstime_set_zero(ptr noundef %101)
  %102 = load ptr, ptr %7, align 8
  %103 = getelementptr inbounds nuw %struct._capture_file, ptr %102, i32 0, i32 42
  %104 = getelementptr inbounds nuw %struct.packet_provider_data, ptr %103, i32 0, i32 1
  store ptr null, ptr %104, align 8
  %105 = load ptr, ptr %7, align 8
  %106 = getelementptr inbounds nuw %struct._capture_file, ptr %105, i32 0, i32 42
  %107 = getelementptr inbounds nuw %struct.packet_provider_data, ptr %106, i32 0, i32 2
  store ptr null, ptr %107, align 8
  %108 = load ptr, ptr %7, align 8
  %109 = getelementptr inbounds nuw %struct._capture_file, ptr %108, i32 0, i32 42
  %110 = getelementptr inbounds nuw %struct.packet_provider_data, ptr %109, i32 0, i32 3
  store ptr null, ptr %110, align 8
  %111 = load ptr, ptr %7, align 8
  %112 = getelementptr inbounds nuw %struct._capture_file, ptr %111, i32 0, i32 53
  store i32 0, ptr %112, align 8
  %113 = load ptr, ptr %7, align 8
  %114 = call ptr @ws_epan_new(ptr noundef %113)
  %115 = load ptr, ptr %7, align 8
  %116 = getelementptr inbounds nuw %struct._capture_file, ptr %115, i32 0, i32 0
  store ptr %114, ptr %116, align 8
  call void @packet_list_queue_draw()
  %117 = load ptr, ptr %7, align 8
  call void @cf_callback_invoke(i32 noundef 0, ptr noundef %117)
  %118 = load ptr, ptr %7, align 8
  %119 = getelementptr inbounds nuw %struct._capture_file, ptr %118, i32 0, i32 42
  %120 = getelementptr inbounds nuw %struct.packet_provider_data, ptr %119, i32 0, i32 0
  %121 = load ptr, ptr %120, align 8
  call void @wtap_set_cb_new_ipv4(ptr noundef %121, ptr noundef @add_ipv4_name)
  %122 = load ptr, ptr %7, align 8
  %123 = getelementptr inbounds nuw %struct._capture_file, ptr %122, i32 0, i32 42
  %124 = getelementptr inbounds nuw %struct.packet_provider_data, ptr %123, i32 0, i32 0
  %125 = load ptr, ptr %124, align 8
  call void @wtap_set_cb_new_ipv6(ptr noundef %125, ptr noundef @add_ipv6_name)
  %126 = load ptr, ptr %7, align 8
  %127 = getelementptr inbounds nuw %struct._capture_file, ptr %126, i32 0, i32 42
  %128 = getelementptr inbounds nuw %struct.packet_provider_data, ptr %127, i32 0, i32 0
  %129 = load ptr, ptr %128, align 8
  call void @wtap_set_cb_new_secrets(ptr noundef %129, ptr noundef @secrets_wtap_callback)
  store i32 0, ptr %6, align 4
  store i32 1, ptr %14, align 4
  br label %135

130:                                              ; preds = %22
  %131 = load ptr, ptr %8, align 8
  %132 = load ptr, ptr %11, align 8
  %133 = load i32, ptr %132, align 4
  %134 = load ptr, ptr %13, align 8
  call void @report_cfile_open_failure(ptr noundef %131, i32 noundef %133, ptr noundef %134)
  store i32 1, ptr %6, align 4
  store i32 1, ptr %14, align 4
  br label %135

135:                                              ; preds = %130, %23
  call void @llvm.lifetime.end.p0(i64 8, ptr %13) #19
  call void @llvm.lifetime.end.p0(i64 8, ptr %12) #19
  %136 = load i32, ptr %6, align 4
  ret i32 %136
}