; Function Attrs: null_pointer_is_valid sspstrong uwtable
define hidden range(i32 0, 2) i32 @cf_open(ptr noundef %0, ptr noundef %1, i32 noundef %2, i1 noundef zeroext %3, ptr noundef %4) local_unnamed_addr #1 {
  %6 = alloca ptr, align 8
  call void @llvm.lifetime.start.p0(i64 8, ptr nonnull %6) #23
  %7 = call ptr @wtap_open_offline(ptr noundef %1, i32 noundef %2, ptr noundef %4, ptr noundef nonnull %6, i1 noundef zeroext true)
  %8 = icmp eq ptr %7, null
  br i1 %8, label %52, label %9

9:                                                ; preds = %5
  %10 = zext i1 %3 to i8
  call void @cf_close(ptr noundef %0)
  %11 = getelementptr inbounds nuw i8, ptr %0, i64 376
  call void @wtap_rec_init(ptr noundef nonnull %11, i64 noundef 1514)
  %12 = getelementptr inbounds nuw i8, ptr %0, i64 8
  store i32 2, ptr %12, align 8
  %13 = getelementptr inbounds nuw i8, ptr %0, i64 161
  store i8 0, ptr %13, align 1
  %14 = getelementptr inbounds nuw i8, ptr %0, i64 164
  store i32 0, ptr %14, align 4
  %15 = getelementptr inbounds nuw i8, ptr %0, i64 224
  store ptr %7, ptr %15, align 8
  %16 = getelementptr inbounds nuw i8, ptr %0, i64 40
  store i64 0, ptr %16, align 8
  %17 = call noalias ptr @g_strdup(ptr noundef %1)
  %18 = getelementptr inbounds nuw i8, ptr %0, i64 16
  store ptr %17, ptr %18, align 8
  %19 = getelementptr inbounds nuw i8, ptr %0, i64 32
  store i8 %10, ptr %19, align 8
  %20 = getelementptr inbounds nuw i8, ptr %0, i64 33
  store i8 0, ptr %20, align 1
  %21 = getelementptr inbounds nuw i8, ptr %0, i64 728
  store i64 0, ptr %21, align 8
  %22 = load ptr, ptr %15, align 8
  %23 = call i32 @wtap_file_type_subtype(ptr noundef %22)
  %24 = trunc i32 %23 to i16
  %25 = getelementptr inbounds nuw i8, ptr %0, i64 48
  store i16 %24, ptr %25, align 8
  %26 = load ptr, ptr %15, align 8
  %27 = call i32 @wtap_get_compression_type(ptr noundef %26)
  %28 = getelementptr inbounds nuw i8, ptr %0, i64 56
  store i32 %27, ptr %28, align 8
  %29 = getelementptr inbounds nuw i8, ptr %0, i64 52
  store i32 %2, ptr %29, align 4
  %30 = call ptr @g_array_sized_new(i32 noundef 0, i32 noundef 0, i32 noundef 4, i32 noundef 1)
  %31 = getelementptr inbounds nuw i8, ptr %0, i64 64
  store ptr %30, ptr %31, align 8
  %32 = getelementptr inbounds nuw i8, ptr %0, i64 72
  store i32 0, ptr %32, align 8
  %33 = getelementptr inbounds nuw i8, ptr %0, i64 80
  %34 = getelementptr inbounds nuw i8, ptr %0, i64 108
  store i32 0, ptr %34, align 4
  call void @llvm.memset.p0.i64(ptr noundef nonnull align 8 dereferenceable(25) %33, i8 0, i64 25, i1 false)
  %35 = load ptr, ptr %15, align 8
  %36 = call i32 @wtap_snapshot_length(ptr noundef %35)
  %37 = getelementptr inbounds nuw i8, ptr %0, i64 128
  store i32 %36, ptr %37, align 8
  %38 = call ptr @new_frame_data_sequence()
  %39 = getelementptr inbounds nuw i8, ptr %0, i64 256
  store ptr %38, ptr %39, align 8
  %40 = getelementptr inbounds nuw i8, ptr %0, i64 112
  call void @nstime_set_zero(ptr noundef nonnull %40)
  %41 = getelementptr inbounds nuw i8, ptr %0, i64 232
  %42 = getelementptr inbounds nuw i8, ptr %0, i64 736
  store i32 0, ptr %42, align 8
  call void @llvm.memset.p0.i64(ptr noundef nonnull align 8 dereferenceable(24) %41, i8 0, i64 24, i1 false)
  %43 = call ptr @epan_new(ptr noundef nonnull %15, ptr noundef nonnull @ws_epan_new.funcs)
  store ptr %43, ptr %0, align 8
  call void @packet_list_queue_draw()
  %.07.i = load ptr, ptr @cf_callbacks, align 8
  %.not8.i = icmp eq ptr %.07.i, null
  br i1 %.not8.i, label %cf_callback_invoke.exit, label %.lr.ph.i

.lr.ph.i:                                         ; preds = %9, %.lr.ph.i
  %.09.i = phi ptr [ %.0.i, %.lr.ph.i ], [ %.07.i, %9 ]
  %44 = load ptr, ptr %.09.i, align 8
  %45 = load ptr, ptr %44, align 8
  %46 = getelementptr inbounds nuw i8, ptr %44, i64 8
  %47 = load ptr, ptr %46, align 8
  call void %45(i32 noundef 0, ptr noundef %0, ptr noundef %47)
  %48 = getelementptr inbounds nuw i8, ptr %.09.i, i64 8
  %.0.i = load ptr, ptr %48, align 8
  %.not.i = icmp eq ptr %.0.i, null
  br i1 %.not.i, label %cf_callback_invoke.exit, label %.lr.ph.i, !llvm.loop !8

cf_callback_invoke.exit:                          ; preds = %.lr.ph.i, %9
  %49 = load ptr, ptr %15, align 8
  call void @wtap_set_cb_new_ipv4(ptr noundef %49, ptr noundef nonnull @add_ipv4_name)
  %50 = load ptr, ptr %15, align 8
  call void @wtap_set_cb_new_ipv6(ptr noundef %50, ptr noundef nonnull @add_ipv6_name)
  %51 = load ptr, ptr %15, align 8
  call void @wtap_set_cb_new_secrets(ptr noundef %51, ptr noundef nonnull @secrets_wtap_callback)
  br label %55

52:                                               ; preds = %5
  %53 = load i32, ptr %4, align 4
  %54 = load ptr, ptr %6, align 8
  call void @report_cfile_open_failure(ptr noundef %1, i32 noundef %53, ptr noundef %54)
  br label %55

55:                                               ; preds = %52, %cf_callback_invoke.exit
  %.0 = phi i32 [ 1, %52 ], [ 0, %cf_callback_invoke.exit ]
  call void @llvm.lifetime.end.p0(i64 8, ptr nonnull %6) #23
  ret i32 %.0
}